target datalayout = "e-m:e-p270:32:32-p271:32:32-p272:64:64-i64:64-i128:128-f80:128-n8:16:32:64-S128"
target triple = "x86_64-pc-linux-gnu"

%struct.nstime_t = type { i64, i32 }
%struct._packet_info = type { ptr, ptr, i32, i32, %struct.nstime_t, %struct.nstime_t, %struct.nstime_t, i8, ptr, ptr, ptr, ptr, %struct._address, %struct._address, %struct._address, %struct._address, %struct._address, %struct._address, i32, ptr, i8, [3 x i8], %struct.anon, i32, i32, i32, i32, ptr, i8, ptr, ptr, i16, i16, i32, i32, i16, i32, i32, ptr, ptr, ptr, i8, i8, i16, i16, i16, i32, i16, i16, ptr, ptr, ptr, ptr, ptr, i32, i32 }
%struct._address = type { i32, i32, ptr, ptr }
%struct.anon = type { i8, [3 x i8] }
%struct._e_guid_t = type { i32, i16, i16, [8 x i8] }

@hf_pfcp_nokia_serving_node_id_flags = internal global i32 0, align 4
@hf_pfcp_nokia_serving_node_id_ipv4 = internal global i32 0, align 4
@hf_pfcp_nokia_serving_node_id_ipv6 = internal global i32 0, align 4
@hf_pfcp_nokia_serving_node_id_uuid = internal global i32 0, align 4
@ett_pfcp_nokia_serving_node_id_flags = internal global i32 0, align 4
@dissect_pfcp_nokia_serving_node_id.pfcp_serving_node_id_flags = internal constant [5 x ptr] [ptr @hf_pfcp_spare_b7_b3, ptr @hf_pfcp_nokia_serving_node_id_flg_b2_uuid, ptr @hf_pfcp_nokia_serving_node_id_flg_b1_v6, ptr @hf_pfcp_nokia_serving_node_id_flg_b0_v4, ptr null], align 16
@.str.2793 = private unnamed_addr constant [11 x i8] c"%s IPv4 %s\00", align 1
@.str.2794 = private unnamed_addr constant [3 x i8] c" :\00", align 1
@.str.2795 = private unnamed_addr constant [2 x i8] c",\00", align 1
@.str.2796 = private unnamed_addr constant [11 x i8] c"%s IPv6 %s\00", align 1
@.str.2797 = private unnamed_addr constant [11 x i8] c"%s UUID %s\00", align 1

; Function Attrs: null_pointer_is_valid sspstrong uwtable
define internal i32 @dissect_pfcp_nokia_serving_node_id(ptr noundef %0, ptr noundef %1, ptr noundef %2, ptr noundef %3) #0 {
  %5 = alloca ptr, align 8
  %6 = alloca ptr, align 8
  %7 = alloca ptr, align 8
  %8 = alloca ptr, align 8
  %9 = alloca i32, align 4
  %10 = alloca i64, align 8
  %11 = alloca i8, align 1
  %12 = alloca %struct._e_guid_t, align 4
  store ptr %0, ptr %5, align 8
  store ptr %1, ptr %6, align 8
  store ptr %2, ptr %7, align 8
  store ptr %3, ptr %8, align 8
  call void @llvm.lifetime.start.p0(i64 4, ptr %9) #13
  store i32 0, ptr %9, align 4
  call void @llvm.lifetime.start.p0(i64 8, ptr %10) #13
  call void @llvm.lifetime.start.p0(i64 1, ptr %11) #13
  store i8 1, ptr %11, align 1
  %13 = load ptr, ptr %7, align 8
  %14 = load ptr, ptr %5, align 8
  %15 = load i32, ptr %9, align 4
  %16 = load i32, ptr @hf_pfcp_nokia_serving_node_id_flags, align 4
  %17 = load i32, ptr @ett_pfcp_nokia_serving_node_id_flags, align 4
  %18 = call ptr @proto_tree_add_bitmask_with_flags_ret_uint64(ptr noundef %13, ptr noundef %14, i32 noundef %15, i32 noundef %16, i32 noundef %17, ptr noundef @dissect_pfcp_nokia_serving_node_id.pfcp_serving_node_id_flags, i32 noundef 0, i32 noundef 14, ptr noundef %10)
  %19 = load i32, ptr %9, align 4
  %20 = add i32 %19, 1
  store i32 %20, ptr %9, align 4
  %21 = load i64, ptr %10, align 8
  %22 = and i64 %21, 1
  %23 = icmp ne i64 %22, 0
  br i1 %23, label %24, label %43

24:                                               ; preds = %4
  %25 = load ptr, ptr %7, align 8
  %26 = load i32, ptr @hf_pfcp_nokia_serving_node_id_ipv4, align 4
  %27 = load ptr, ptr %5, align 8
  %28 = load i32, ptr %9, align 4
  %29 = call ptr @proto_tree_add_item(ptr noundef %25, i32 noundef %26, ptr noundef %27, i32 noundef %28, i32 noundef 4, i32 noundef 0)
  %30 = load ptr, ptr %7, align 8
  %31 = call ptr @proto_tree_get_parent(ptr noundef %30)
  %32 = load i8, ptr %11, align 1, !range !8, !noundef !9
  %33 = trunc i8 %32 to i1
  %34 = select i1 %33, ptr @.str.2794, ptr @.str.2795
  %35 = load ptr, ptr %6, align 8
  %36 = getelementptr inbounds nuw %struct._packet_info, ptr %35, i32 0, i32 51
  %37 = load ptr, ptr %36, align 8
  %38 = load ptr, ptr %5, align 8
  %39 = load i32, ptr %9, align 4
  %40 = call ptr @tvb_address_to_str(ptr noundef %37, ptr noundef %38, i32 noundef 2, i32 noundef %39)
  call void (ptr, ptr, ...) @proto_item_append_text(ptr noundef %31, ptr noundef @.str.2793, ptr noundef %34, ptr noundef %40)
  store i8 0, ptr %11, align 1
  %41 = load i32, ptr %9, align 4
  %42 = add i32 %41, 4
  store i32 %42, ptr %9, align 4
  br label %43

43:                                               ; preds = %24, %4
  %44 = load i64, ptr %10, align 8
  %45 = and i64 %44, 2
  %46 = icmp ne i64 %45, 0
  br i1 %46, label %47, label %66

47:                                               ; preds = %43
  %48 = load ptr, ptr %7, align 8
  %49 = load i32, ptr @hf_pfcp_nokia_serving_node_id_ipv6, align 4
  %50 = load ptr, ptr %5, align 8
  %51 = load i32, ptr %9, align 4
  %52 = call ptr @proto_tree_add_item(ptr noundef %48, i32 noundef %49, ptr noundef %50, i32 noundef %51, i32 noundef 16, i32 noundef 0)
  %53 = load ptr, ptr %7, align 8
  %54 = call ptr @proto_tree_get_parent(ptr noundef %53)
  %55 = load i8, ptr %11, align 1, !range !8, !noundef !9
  %56 = trunc i8 %55 to i1
  %57 = select i1 %56, ptr @.str.2794, ptr @.str.2795
  %58 = load ptr, ptr %6, align 8
  %59 = getelementptr inbounds nuw %struct._packet_info, ptr %58, i32 0, i32 51
  %60 = load ptr, ptr %59, align 8
  %61 = load ptr, ptr %5, align 8
  %62 = load i32, ptr %9, align 4
  %63 = call ptr @tvb_address_to_str(ptr noundef %60, ptr noundef %61, i32 noundef 3, i32 noundef %62)
  call void (ptr, ptr, ...) @proto_item_append_text(ptr noundef %54, ptr noundef @.str.2796, ptr noundef %57, ptr noundef %63)
  store i8 0, ptr %11, align 1
  %64 = load i32, ptr %9, align 4
  %65 = add i32 %64, 16
  store i32 %65, ptr %9, align 4
  br label %66

66:                                               ; preds = %47, %43
  %67 = load i64, ptr %10, align 8
  %68 = and i64 %67, 4
  %69 = icmp ne i64 %68, 0
  br i1 %69, label %70, label %89

70:                                               ; preds = %66
  call void @llvm.lifetime.start.p0(i64 16, ptr %12) #13
  %71 = load ptr, ptr %7, align 8
  %72 = load i32, ptr @hf_pfcp_nokia_serving_node_id_uuid, align 4
  %73 = load ptr, ptr %5, align 8
  %74 = load i32, ptr %9, align 4
  %75 = call ptr @proto_tree_add_item(ptr noundef %71, i32 noundef %72, ptr noundef %73, i32 noundef %74, i32 noundef 16, i32 noundef 0)
  %76 = load ptr, ptr %5, align 8
  %77 = load i32, ptr %9, align 4
  call void @tvb_get_guid(ptr noundef %76, i32 noundef %77, ptr noundef %12, i32 noundef 0)
  %78 = load ptr, ptr %7, align 8
  %79 = call ptr @proto_tree_get_parent(ptr noundef %78)
  %80 = load i8, ptr %11, align 1, !range !8, !noundef !9
  %81 = trunc i8 %80 to i1
  %82 = select i1 %81, ptr @.str.2794, ptr @.str.2795
  %83 = load ptr, ptr %6, align 8
  %84 = getelementptr inbounds nuw %struct._packet_info, ptr %83, i32 0, i32 51
  %85 = load ptr, ptr %84, align 8
  %86 = call ptr @guid_to_str(ptr noundef %85, ptr noundef %12)
  call void (ptr, ptr, ...) @proto_item_append_text(ptr noundef %79, ptr noundef @.str.2797, ptr noundef %82, ptr noundef %86)
  %87 = load i32, ptr %9, align 4
  %88 = add i32 %87, 16
  store i32 %88, ptr %9, align 4
  call void @llvm.lifetime.end.p0(i64 16, ptr %12) #13
  br label %89

89:                                               ; preds = %70, %66
  %90 = load i32, ptr %9, align 4
  call void @llvm.lifetime.end.p0(i64 1, ptr %11) #13
  call void @llvm.lifetime.end.p0(i64 8, ptr %10) #13
  call void @llvm.lifetime.end.p0(i64 4, ptr %9) #13
  ret i32 %90
}