; Function Attrs: null_pointer_is_valid sspstrong uwtable
define internal range(i32 1, 40) i32 @dissect_pfcp_nokia_serving_node_id(ptr noundef %0, ptr noundef readonly captures(none) %1, ptr noundef %2, ptr readnone captures(none) %3) #0 {
  %5 = alloca i64, align 8
  %6 = alloca %struct._e_guid_t, align 4
  call void @llvm.lifetime.start.p0(i64 8, ptr nonnull %5) #15
  %7 = load i32, ptr @hf_pfcp_nokia_serving_node_id_flags, align 4
  %8 = load i32, ptr @ett_pfcp_nokia_serving_node_id_flags, align 4
  %9 = call ptr @proto_tree_add_bitmask_with_flags_ret_uint64(ptr noundef %2, ptr noundef %0, i32 noundef 0, i32 noundef %7, i32 noundef %8, ptr noundef nonnull @dissect_pfcp_nokia_serving_node_id.pfcp_serving_node_id_flags, i32 noundef 0, i32 noundef 14, ptr noundef nonnull %5)
  %10 = load i64, ptr %5, align 8
  %11 = and i64 %10, 1
  %.not = icmp eq i64 %11, 0
  br i1 %.not, label %19, label %12

12:                                               ; preds = %4
  %13 = load i32, ptr @hf_pfcp_nokia_serving_node_id_ipv4, align 4
  %14 = call ptr @proto_tree_add_item(ptr noundef %2, i32 noundef %13, ptr noundef %0, i32 noundef 1, i32 noundef 4, i32 noundef 0)
  %15 = call ptr @proto_tree_get_parent(ptr noundef %2)
  %16 = getelementptr inbounds nuw i8, ptr %1, i64 408
  %17 = load ptr, ptr %16, align 8
  %18 = call ptr @tvb_address_to_str(ptr noundef %17, ptr noundef %0, i32 noundef 2, i32 noundef 1)
  call void (ptr, ptr, ...) @proto_item_append_text(ptr noundef %15, ptr noundef nonnull @.str.2793, ptr noundef nonnull @.str.2794, ptr noundef %18)
  %.pre = load i64, ptr %5, align 8
  br label %19

19:                                               ; preds = %12, %4
  %20 = phi i64 [ %.pre, %12 ], [ %10, %4 ]
  %.031 = phi i32 [ 5, %12 ], [ 1, %4 ]
  %.0 = phi i8 [ 0, %12 ], [ 1, %4 ]
  %21 = and i64 %20, 2
  %.not33 = icmp eq i64 %21, 0
  br i1 %.not33, label %32, label %22

22:                                               ; preds = %19
  %23 = load i32, ptr @hf_pfcp_nokia_serving_node_id_ipv6, align 4
  %24 = call ptr @proto_tree_add_item(ptr noundef %2, i32 noundef %23, ptr noundef %0, i32 noundef %.031, i32 noundef 16, i32 noundef 0)
  %25 = call ptr @proto_tree_get_parent(ptr noundef %2)
  %26 = trunc nuw i8 %.0 to i1
  %27 = select i1 %26, ptr @.str.2794, ptr @.str.2795
  %28 = getelementptr inbounds nuw i8, ptr %1, i64 408
  %29 = load ptr, ptr %28, align 8
  %30 = call ptr @tvb_address_to_str(ptr noundef %29, ptr noundef %0, i32 noundef 3, i32 noundef %.031)
  call void (ptr, ptr, ...) @proto_item_append_text(ptr noundef %25, ptr noundef nonnull @.str.2796, ptr noundef nonnull %27, ptr noundef %30)
  %31 = or disjoint i32 %.031, 16
  %.pre35 = load i64, ptr %5, align 8
  br label %32

32:                                               ; preds = %22, %19
  %33 = phi i64 [ %.pre35, %22 ], [ %20, %19 ]
  %.132 = phi i32 [ %31, %22 ], [ %.031, %19 ]
  %.1 = phi i8 [ 0, %22 ], [ %.0, %19 ]
  %34 = and i64 %33, 4
  %.not34 = icmp eq i64 %34, 0
  br i1 %.not34, label %45, label %35

35:                                               ; preds = %32
  call void @llvm.lifetime.start.p0(i64 16, ptr nonnull %6) #15
  %36 = load i32, ptr @hf_pfcp_nokia_serving_node_id_uuid, align 4
  %37 = call ptr @proto_tree_add_item(ptr noundef %2, i32 noundef %36, ptr noundef %0, i32 noundef %.132, i32 noundef 16, i32 noundef 0)
  call void @tvb_get_guid(ptr noundef %0, i32 noundef %.132, ptr noundef nonnull %6, i32 noundef 0)
  %38 = call ptr @proto_tree_get_parent(ptr noundef %2)
  %39 = trunc nuw i8 %.1 to i1
  %40 = select i1 %39, ptr @.str.2794, ptr @.str.2795
  %41 = getelementptr inbounds nuw i8, ptr %1, i64 408
  %42 = load ptr, ptr %41, align 8
  %43 = call ptr @guid_to_str(ptr noundef %42, ptr noundef nonnull %6)
  call void (ptr, ptr, ...) @proto_item_append_text(ptr noundef %38, ptr noundef nonnull @.str.2797, ptr noundef nonnull %40, ptr noundef %43)
  %44 = add nuw nsw i32 %.132, 16
  call void @llvm.lifetime.end.p0(i64 16, ptr nonnull %6) #15
  br label %45

45:                                               ; preds = %35, %32
  %.2 = phi i32 [ %44, %35 ], [ %.132, %32 ]
  call void @llvm.lifetime.end.p0(i64 8, ptr nonnull %5) #15
  ret i32 %.2
}